target datalayout = "e-m:e-p270:32:32-p271:32:32-p272:64:64-i64:64-i128:128-f80:128-n8:16:32:64-S128"
target triple = "x86_64-pc-linux-gnu"

%"class.icu_77::UObject" = type { ptr }
%"class.icu_77::Locale" = type <{ %"class.icu_77::UObject", [12 x i8], [6 x i8], [4 x i8], [2 x i8], i32, [4 x i8], ptr, [157 x i8], [3 x i8], ptr, i8, [7 x i8] }>
%"class.icu_77::RelativeDateTimeFormatter" = type { %"class.icu_77::UObject", ptr, ptr, ptr, i32, i32, ptr, %"class.icu_77::Locale" }

@_ZTVN6icu_777UObjectE = available_externally unnamed_addr constant { [5 x ptr] } { [5 x ptr] [ptr null, ptr @_ZTIN6icu_777UObjectE, ptr @_ZN6icu_777UObjectD1Ev, ptr @_ZN6icu_777UObjectD0Ev, ptr @_ZNK6icu_777UObject17getDynamicClassIDEv] }, align 8

; Function Attrs: inlinehint mustprogress nounwind uwtable
define linkonce_odr void @_ZN6icu_777UObjectC2Ev(ptr noundef nonnull align 8 dereferenceable(8) %0) unnamed_addr #2 comdat align 2 {
  %2 = alloca ptr, align 8
  store ptr %0, ptr %2, align 8, !tbaa !108
  %3 = load ptr, ptr %2, align 8
  store ptr getelementptr inbounds inrange(-16, 24) ({ [5 x ptr] }, ptr @_ZTVN6icu_777UObjectE, i32 0, i32 0, i32 2), ptr %3, align 8, !tbaa !25
  ret void
}

; Function Attrs: mustprogress uwtable
define void @_ZN6icu_7725RelativeDateTimeFormatterC2ERKNS_6LocaleER10UErrorCode(ptr noundef nonnull align 8 dereferenceable(272) %0, ptr noundef nonnull align 8 dereferenceable(217) %1, ptr noundef nonnull align 4 dereferenceable(4) %2) unnamed_addr #1 align 2 personality ptr @__gxx_personality_v0 {
  %4 = alloca ptr, align 8
  %5 = alloca ptr, align 8
  %6 = alloca ptr, align 8
  %7 = alloca ptr, align 8
  %8 = alloca i32, align 4
  store ptr %0, ptr %4, align 8, !tbaa !94
  store ptr %1, ptr %5, align 8, !tbaa !58
  store ptr %2, ptr %6, align 8, !tbaa !22
  %9 = load ptr, ptr %4, align 8
  call void @_ZN6icu_777UObjectC2Ev(ptr noundef nonnull align 8 dereferenceable(8) %9) #12
  store ptr getelementptr inbounds inrange(-16, 24) ({ [5 x ptr] }, ptr @_ZTVN6icu_7725RelativeDateTimeFormatterE, i32 0, i32 0, i32 2), ptr %9, align 8, !tbaa !25
  %10 = getelementptr inbounds nuw %"class.icu_77::RelativeDateTimeFormatter", ptr %9, i32 0, i32 1
  store ptr null, ptr %10, align 8, !tbaa !96
  %11 = getelementptr inbounds nuw %"class.icu_77::RelativeDateTimeFormatter", ptr %9, i32 0, i32 2
  store ptr null, ptr %11, align 8, !tbaa !103
  %12 = getelementptr inbounds nuw %"class.icu_77::RelativeDateTimeFormatter", ptr %9, i32 0, i32 3
  store ptr null, ptr %12, align 8, !tbaa !104
  %13 = getelementptr inbounds nuw %"class.icu_77::RelativeDateTimeFormatter", ptr %9, i32 0, i32 4
  store i32 0, ptr %13, align 8, !tbaa !105
  %14 = getelementptr inbounds nuw %"class.icu_77::RelativeDateTimeFormatter", ptr %9, i32 0, i32 5
  store i32 256, ptr %14, align 4, !tbaa !106
  %15 = getelementptr inbounds nuw %"class.icu_77::RelativeDateTimeFormatter", ptr %9, i32 0, i32 6
  store ptr null, ptr %15, align 8, !tbaa !107
  %16 = getelementptr inbounds nuw %"class.icu_77::RelativeDateTimeFormatter", ptr %9, i32 0, i32 7
  %17 = load ptr, ptr %5, align 8, !tbaa !58
  invoke void @_ZN6icu_776LocaleC1ERKS0_(ptr noundef nonnull align 8 dereferenceable(217) %16, ptr noundef nonnull align 8 dereferenceable(217) %17)
          to label %18 unwind label %21

18:                                               ; preds = %3
  %19 = load ptr, ptr %6, align 8, !tbaa !22
  invoke void @_ZN6icu_7725RelativeDateTimeFormatter4initEPNS_12NumberFormatEPNS_13BreakIteratorER10UErrorCode(ptr noundef nonnull align 8 dereferenceable(272) %9, ptr noundef null, ptr noundef null, ptr noundef nonnull align 4 dereferenceable(4) %19)
          to label %20 unwind label %25

20:                                               ; preds = %18
  ret void

21:                                               ; preds = %3
  %22 = landingpad { ptr, i32 }
          cleanup
  %23 = extractvalue { ptr, i32 } %22, 0
  store ptr %23, ptr %7, align 8
  %24 = extractvalue { ptr, i32 } %22, 1
  store i32 %24, ptr %8, align 4
  br label %29

25:                                               ; preds = %18
  %26 = landingpad { ptr, i32 }
          cleanup
  %27 = extractvalue { ptr, i32 } %26, 0
  store ptr %27, ptr %7, align 8
  %28 = extractvalue { ptr, i32 } %26, 1
  store i32 %28, ptr %8, align 4
  call void @_ZN6icu_776LocaleD1Ev(ptr noundef nonnull align 8 dereferenceable(217) %16) #12
  br label %29

29:                                               ; preds = %25, %21
  call void @_ZN6icu_777UObjectD2Ev(ptr noundef nonnull align 8 dereferenceable(8) %9) #12
  br label %30

30:                                               ; preds = %29
  %31 = load ptr, ptr %7, align 8
  %32 = load i32, ptr %8, align 4
  %33 = insertvalue { ptr, i32 } poison, ptr %31, 0
  %34 = insertvalue { ptr, i32 } %33, i32 %32, 1
  resume { ptr, i32 } %34
}