; Function Attrs: mustprogress uwtable
define void @_ZN6icu_7725RelativeDateTimeFormatterC2ERKNS_6LocaleER10UErrorCode(ptr noundef nonnull align 8 dereferenceable(272) initializes((0, 48)) %0, ptr noundef nonnull align 8 dereferenceable(217) %1, ptr noundef nonnull align 4 dereferenceable(4) %2) unnamed_addr #1 align 2 personality ptr @__gxx_personality_v0 {
  store ptr getelementptr inbounds nuw inrange(-16, 24) (i8, ptr @_ZTVN6icu_7725RelativeDateTimeFormatterE, i64 16), ptr %0, align 8, !tbaa !15
  %4 = getelementptr inbounds nuw i8, ptr %0, i64 8
  %5 = getelementptr inbounds nuw i8, ptr %0, i64 36
  tail call void @llvm.memset.p0.i64(ptr noundef nonnull align 8 dereferenceable(28) %4, i8 0, i64 28, i1 false)
  store i32 256, ptr %5, align 4, !tbaa !72
  %6 = getelementptr inbounds nuw i8, ptr %0, i64 40
  store ptr null, ptr %6, align 8, !tbaa !79
  %7 = getelementptr inbounds nuw i8, ptr %0, i64 48
  invoke void @_ZN6icu_776LocaleC1ERKS0_(ptr noundef nonnull align 8 dereferenceable(217) %7, ptr noundef nonnull align 8 dereferenceable(217) %1)
          to label %8 unwind label %10

8:                                                ; preds = %3
  invoke void @_ZN6icu_7725RelativeDateTimeFormatter4initEPNS_12NumberFormatEPNS_13BreakIteratorER10UErrorCode(ptr noundef nonnull align 8 dereferenceable(272) %0, ptr noundef null, ptr noundef null, ptr noundef nonnull align 4 dereferenceable(4) %2)
          to label %9 unwind label %12

9:                                                ; preds = %8
  ret void

10:                                               ; preds = %3
  %11 = landingpad { ptr, i32 }
          cleanup
  br label %14

12:                                               ; preds = %8
  %13 = landingpad { ptr, i32 }
          cleanup
  tail call void @_ZN6icu_776LocaleD1Ev(ptr noundef nonnull align 8 dereferenceable(217) %7) #20
  br label %14

14:                                               ; preds = %12, %10
  %.pn = phi { ptr, i32 } [ %13, %12 ], [ %11, %10 ]
  tail call void @_ZN6icu_777UObjectD2Ev(ptr noundef nonnull align 8 dereferenceable(8) %0) #20
  resume { ptr, i32 } %.pn
}